; Function Attrs: nounwind uwtable
define internal i32 @SpoolssSetForm_q(ptr noundef %0, i32 noundef %1, ptr noundef %2, ptr noundef %3, ptr noundef %4, ptr noundef %5) #0 {
  %7 = alloca ptr, align 8
  %8 = alloca i32, align 4
  store ptr null, ptr %7, align 8
  %9 = load i32, ptr @hf_form, align 4
  %10 = tail call ptr @proto_tree_add_uint(ptr noundef %3, i32 noundef %9, ptr noundef %0, i32 noundef %1, i32 noundef 0, i32 noundef 1) #5
  %.not.i = icmp eq ptr %10, null
  br i1 %.not.i, label %proto_item_set_hidden.exit, label %11

11:                                               ; preds = %6
  %12 = getelementptr inbounds nuw i8, ptr %10, i64 32
  %13 = load ptr, ptr %12, align 8
  %.not5.i = icmp eq ptr %13, null
  br i1 %.not5.i, label %proto_item_set_hidden.exit, label %14

14:                                               ; preds = %11
  %15 = getelementptr inbounds nuw i8, ptr %13, i64 28
  %16 = load i32, ptr %15, align 4
  %17 = or i32 %16, 1
  store i32 %17, ptr %15, align 4
  br label %proto_item_set_hidden.exit

proto_item_set_hidden.exit:                       ; preds = %6, %11, %14
  %18 = load i32, ptr @hf_hnd, align 4
  %19 = tail call i32 @dissect_nt_policy_hnd(ptr noundef %0, i32 noundef %1, ptr noundef %2, ptr noundef %3, ptr noundef %4, ptr noundef %5, i32 noundef %18, ptr noundef null, ptr noundef null, i32 noundef 0, i32 noundef 0) #5
  %20 = load i32, ptr @hf_form_name, align 4
  %21 = call i32 @dissect_ndr_cvstring(ptr noundef %0, i32 noundef %19, ptr noundef %2, ptr noundef %3, ptr noundef %4, ptr noundef %5, i32 noundef 2, i32 noundef %20, i32 noundef 1, ptr noundef nonnull %7) #5
  %22 = load ptr, ptr %7, align 8
  %.not = icmp eq ptr %22, null
  br i1 %.not, label %26, label %23

23:                                               ; preds = %proto_item_set_hidden.exit
  %24 = getelementptr inbounds nuw i8, ptr %2, i64 8
  %25 = load ptr, ptr %24, align 8
  call void (ptr, i32, ptr, ...) @col_append_fstr(ptr noundef %25, i32 noundef 25, ptr noundef nonnull @.str.1228, ptr noundef nonnull %22) #5
  br label %26

26:                                               ; preds = %23, %proto_item_set_hidden.exit
  %27 = load i32, ptr @hf_form_level, align 4
  %28 = call i32 @dissect_ndr_uint32(ptr noundef %0, i32 noundef %21, ptr noundef %2, ptr noundef %3, ptr noundef %4, ptr noundef %5, i32 noundef %27, ptr noundef nonnull %8) #5
  %29 = getelementptr inbounds nuw i8, ptr %2, i64 8
  %30 = load ptr, ptr %29, align 8
  %31 = load i32, ptr %8, align 4
  call void (ptr, i32, ptr, ...) @col_append_fstr(ptr noundef %30, i32 noundef 25, ptr noundef nonnull @.str.1206, i32 noundef %31) #5
  %32 = call i32 @dissect_FORM_CTR(ptr noundef %0, i32 noundef %28, ptr noundef %2, ptr noundef %3, ptr noundef %4, ptr noundef %5)
  ret i32 %32
}